Certificate:
    Data:
        Version: 3 (0x2)
        Serial Number: 2 (0x2)
    Signature Algorithm: sha256WithRSAEncryption
        Issuer: C=ES, ST=CATALUNYA, L=Barcelona, O=i2CAT, OU=DANA/SEG, CN=i2CAT CA/name=EasyRSA/emailAddress=e-mail@mail.com
        Validity
            Not Before: Mar  2 11:25:54 2016 GMT
            Not After : Feb 28 11:25:54 2026 GMT
        Subject: C=ES, ST=CATALUNYA, L=Barcelona, O=i2CAT, OU=DANA/SEG, CN=client/name=EasyRSA/emailAddress=e-mail@mail.com
        Subject Public Key Info:
            Public Key Algorithm: rsaEncryption
                Public-Key: (2048 bit)
                Modulus:
                    00:e4:5c:85:9d:bb:c6:2c:8d:c6:07:a0:e9:c7:61:
                    d8:fc:4b:52:24:59:72:98:39:c9:49:3d:52:41:67:
                    71:38:e2:4a:aa:9d:de:39:df:04:6f:58:61:69:e6:
                    ff:b2:fc:f4:d6:34:a4:1a:c7:f4:7f:04:03:28:dd:
                    e2:fd:17:2a:42:4b:e2:47:90:f6:c0:be:d1:cf:5f:
                    c8:87:9d:0b:27:98:84:40:9a:1c:19:6f:68:5d:f1:
                    5b:25:f1:7a:c7:41:eb:99:49:5c:56:75:c5:d9:fa:
                    8e:98:0d:69:53:ce:d5:aa:1f:e3:3a:21:63:ed:f8:
                    0b:d1:d5:57:18:f6:f0:82:f5:75:b2:de:10:ad:e1:
                    73:e9:e9:23:dd:10:93:c6:85:e8:52:2a:12:94:9f:
                    dd:2d:db:f2:1b:ae:9b:15:32:0a:37:c0:f0:61:da:
                    52:61:a2:e4:88:8c:22:d7:a7:21:f9:97:c0:98:51:
                    9e:3b:c4:24:dd:fb:22:d6:de:2d:f2:b2:f1:bb:be:
                    a4:9a:4b:3a:07:20:97:7f:a7:53:6c:7c:da:26:91:
                    01:48:38:9c:33:c0:3c:6c:90:99:54:c4:06:01:53:
                    b3:6e:29:51:b4:f3:f2:9a:15:a0:f3:49:d6:3f:ba:
                    34:d8:c4:2d:56:3b:7b:41:c7:72:0a:78:89:ef:95:
                    a3:57
                Exponent: 65537 (0x10001)
        X509v3 extensions:
            X509v3 Basic Constraints: 
                CA:FALSE
            Netscape Comment: 
                Easy-RSA Generated Certificate
            X509v3 Subject Key Identifier: 
                25:3A:C9:50:83:CA:CF:67:29:C1:9E:42:AC:CF:68:64:64:C5:15:B8
            X509v3 Authority Key Identifier: 
                keyid:A6:3D:BB:44:C2:0D:B9:99:16:84:16:22:69:B6:EF:C1:3C:AB:1A:9C
                DirName:/C=ES/ST=CATALUNYA/L=Barcelona/O=i2CAT/OU=DANA/SEG/CN=i2CAT CA/name=EasyRSA/emailAddress=e-mail@mail.com
                serial:FF:2A:1C:77:70:10:93:60

            X509v3 Extended Key Usage: 
                TLS Web Client Authentication
            X509v3 Key Usage: 
                Digital Signature
            X509v3 Subject Alternative Name: 
                DNS:client
    Signature Algorithm: sha256WithRSAEncryption
         72:da:91:f1:18:09:51:41:d4:4f:a4:55:b3:60:df:89:c2:ba:
         6e:06:be:f3:49:80:c1:34:e5:d8:19:f1:0f:64:7e:f8:3f:55:
         ef:c1:ef:13:bc:9f:c7:28:ca:87:03:ec:70:93:8a:67:2f:42:
         fd:19:91:82:e9:53:2f:0d:b5:cb:75:d6:7f:24:4b:31:e5:29:
         33:95:0b:5c:ee:41:5a:b5:fe:e6:64:96:fd:20:4c:9b:dd:27:
         05:80:06:e5:21:8a:f7:3f:a1:77:2f:88:c6:73:16:69:c2:9f:
         b4:a4:22:92:93:ef:e6:58:43:13:d4:a2:a1:f9:56:fa:e8:29:
         fa:63:8f:e7:65:d2:46:72:d5:c3:a8:e6:c8:68:4d:85:f4:9c:
         2d:93:bc:6e:d1:a7:8c:e8:fb:1a:f2:34:ea:12:a2:96:85:b8:
         8d:d0:14:5d:30:a5:5d:ad:6d:ff:70:00:e7:50:0c:84:62:23:
         75:05:8b:4f:ae:17:cb:a3:fd:9a:90:03:a5:ab:73:08:b1:8a:
         a6:bb:89:db:64:24:73:3a:65:fd:0f:5a:2c:01:66:9a:eb:28:
         ea:b9:01:ad:6c:a7:51:b8:c1:55:70:25:30:b5:d2:88:53:9b:
         71:70:46:c0:c3:bc:e6:d8:b1:dd:6e:56:dc:db:65:24:55:b7:
         f5:1b:eb:6e
-----BEGIN CERTIFICATE-----
MIIFHjCCBAagAwIBAgIBAjANBgkqhkiG9w0BAQsFADCBnTELMAkGA1UEBhMCRVMx
EjAQBgNVBAgTCUNBVEFMVU5ZQTESMBAGA1UEBxMJQmFyY2Vsb25hMQ4wDAYDVQQK
EwVpMkNBVDERMA8GA1UECxMIREFOQS9TRUcxETAPBgNVBAMTCGkyQ0FUIENBMRAw
DgYDVQQpEwdFYXN5UlNBMR4wHAYJKoZIhvcNAQkBFg9lLW1haWxAbWFpbC5jb20w
HhcNMTYwMzAyMTEyNTU0WhcNMjYwMjI4MTEyNTU0WjCBmzELMAkGA1UEBhMCRVMx
EjAQBgNVBAgTCUNBVEFMVU5ZQTESMBAGA1UEBxMJQmFyY2Vsb25hMQ4wDAYDVQQK
EwVpMkNBVDERMA8GA1UECxMIREFOQS9TRUcxDzANBgNVBAMTBmNsaWVudDEQMA4G
A1UEKRMHRWFzeVJTQTEeMBwGCSqGSIb3DQEJARYPZS1tYWlsQG1haWwuY29tMIIB
IjANBgkqhkiG9w0BAQEFAAOCAQ8AMIIBCgKCAQEA5FyFnbvGLI3GB6Dpx2HY/EtS
JFlymDnJST1SQWdxOOJKqp3eOd8Eb1hhaeb/svz01jSkGsf0fwQDKN3i/RcqQkvi
R5D2wL7Rz1/Ih50LJ5iEQJocGW9oXfFbJfF6x0HrmUlcVnXF2fqOmA1pU87Vqh/j
OiFj7fgL0dVXGPbwgvV1st4QreFz6ekj3RCTxoXoUioSlJ/dLdvyG66bFTIKN8Dw
YdpSYaLkiIwi16ch+ZfAmFGeO8Qk3fsi1t4t8rLxu76kmks6ByCXf6dTbHzaJpEB
SDicM8A8bJCZVMQGAVOzbilRtPPymhWg80nWP7o02MQtVjt7QcdyCniJ75WjVwID
AQABo4IBZzCCAWMwCQYDVR0TBAIwADAtBglghkgBhvhCAQ0EIBYeRWFzeS1SU0Eg
R2VuZXJhdGVkIENlcnRpZmljYXRlMB0GA1UdDgQWBBQlOslQg8rPZynBnkKsz2hk
ZMUVuDCB0gYDVR0jBIHKMIHHgBSmPbtEwg25mRaEFiJptu/BPKsanKGBo6SBoDCB
nTELMAkGA1UEBhMCRVMxEjAQBgNVBAgTCUNBVEFMVU5ZQTESMBAGA1UEBxMJQmFy
Y2Vsb25hMQ4wDAYDVQQKEwVpMkNBVDERMA8GA1UECxMIREFOQS9TRUcxETAPBgNV
BAMTCGkyQ0FUIENBMRAwDgYDVQQpEwdFYXN5UlNBMR4wHAYJKoZIhvcNAQkBFg9l
LW1haWxAbWFpbC5jb22CCQD/Khx3cBCTYDATBgNVHSUEDDAKBggrBgEFBQcDAjAL
BgNVHQ8EBAMCB4AwEQYDVR0RBAowCIIGY2xpZW50MA0GCSqGSIb3DQEBCwUAA4IB
AQBy2pHxGAlRQdRPpFWzYN+JwrpuBr7zSYDBNOXYGfEPZH74P1Xvwe8TvJ/HKMqH
A+xwk4pnL0L9GZGC6VMvDbXLddZ/JEsx5SkzlQtc7kFatf7mZJb9IEyb3ScFgAbl
IYr3P6F3L4jGcxZpwp+0pCKSk+/mWEMT1KKh+Vb66Cn6Y4/nZdJGctXDqObIaE2F
9Jwtk7xu0aeM6Psa8jTqEqKWhbiN0BRdMKVdrW3/cADnUAyEYiN1BYtPrhfLo/2a
kAOlq3MIsYqmu4nbZCRzOmX9D1osAWaa6yjquQGtbKdRuMFVcCUwtdKIU5txcEbA
w7zm2LHdblbc22UkVbf1G+tu
-----END CERTIFICATE-----
