Certificate:
    Data:
        Version: 3 (0x2)
        Serial Number: 3 (0x3)
    Signature Algorithm: sha256WithRSAEncryption
        Issuer: C=ES, ST=CATALUNYA, L=Barcelona, O=i2CAT, OU=DANA/SEG, CN=i2CAT CA/name=EasyRSA/emailAddress=e-mail@mail.com
        Validity
            Not Before: Mar  2 11:39:59 2016 GMT
            Not After : Feb 28 11:39:59 2026 GMT
        Subject: C=ES, ST=CATALUNYA, L=Barcelona, O=i2CAT, OU=DANA/SEG, CN=client1/name=EasyRSA/emailAddress=e-mail@mail.com
        Subject Public Key Info:
            Public Key Algorithm: rsaEncryption
                Public-Key: (2048 bit)
                Modulus:
                    00:bc:79:c4:80:c6:d0:73:9e:77:76:fe:20:9d:d3:
                    e0:9d:a1:76:10:ef:0f:5c:c4:53:52:28:69:d3:f4:
                    b6:78:34:cc:4e:74:3f:68:cf:9d:4d:1c:9b:da:64:
                    47:cc:eb:41:e6:09:33:22:33:aa:83:20:fa:69:4e:
                    5b:66:05:e5:85:ef:92:ad:ba:14:0f:51:da:23:1d:
                    6f:c3:63:86:93:80:48:8f:61:aa:21:ab:5a:0d:e0:
                    b8:c7:8d:13:95:0b:af:7b:1b:d3:30:eb:c8:b4:a1:
                    c8:34:c8:62:01:f8:57:f1:d0:fb:5c:09:c1:44:01:
                    43:8f:ea:19:ef:57:68:85:be:f5:8c:37:9c:08:6b:
                    5d:65:c7:15:8c:9b:b1:da:b6:7f:39:bc:dc:96:2f:
                    89:6b:62:4f:8f:6c:3a:43:f4:a5:f6:28:7f:d7:39:
                    9e:d3:ef:bd:c4:b0:47:ac:b9:73:de:43:07:e8:5f:
                    b8:f8:76:c4:9c:ad:3c:f5:87:ff:a7:8f:6b:69:ea:
                    a8:5f:b9:7f:bc:77:cf:97:d0:85:eb:ab:32:11:46:
                    f5:c7:20:b7:6c:13:c6:e4:7f:3c:59:f3:1b:aa:b0:
                    27:67:f0:75:f6:54:92:39:da:da:6b:96:aa:d7:4b:
                    3e:05:91:e7:37:81:4c:84:06:da:ab:2f:38:26:82:
                    94:39
                Exponent: 65537 (0x10001)
        X509v3 extensions:
            X509v3 Basic Constraints: 
                CA:FALSE
            Netscape Comment: 
                Easy-RSA Generated Certificate
            X509v3 Subject Key Identifier: 
                CA:FD:FC:48:1C:E3:4F:33:B9:33:36:8A:DF:40:D1:48:9C:15:F6:F7
            X509v3 Authority Key Identifier: 
                keyid:A6:3D:BB:44:C2:0D:B9:99:16:84:16:22:69:B6:EF:C1:3C:AB:1A:9C
                DirName:/C=ES/ST=CATALUNYA/L=Barcelona/O=i2CAT/OU=DANA/SEG/CN=i2CAT CA/name=EasyRSA/emailAddress=e-mail@mail.com
                serial:FF:2A:1C:77:70:10:93:60

            X509v3 Extended Key Usage: 
                TLS Web Client Authentication
            X509v3 Key Usage: 
                Digital Signature
            X509v3 Subject Alternative Name: 
                DNS:client1
    Signature Algorithm: sha256WithRSAEncryption
         46:e8:83:ca:e0:c4:c5:86:09:74:d3:54:35:87:cd:68:f0:d8:
         d8:e7:eb:99:a7:1d:71:75:d3:8e:60:d6:71:76:ce:e8:0c:12:
         33:fa:db:3d:2d:7a:a1:7e:5c:63:50:64:b7:02:a6:f8:6a:1f:
         1b:d3:c2:0b:00:63:22:c8:a2:84:48:9b:cf:04:07:ae:eb:d2:
         9c:45:00:3d:5b:37:49:f9:d1:cc:79:fc:b1:29:1f:ad:49:c3:
         65:eb:a2:61:f5:ac:39:52:e1:9e:35:57:44:07:02:66:af:33:
         d9:40:6a:54:17:0c:65:f6:88:d8:d7:9d:5d:fe:04:62:f7:44:
         0b:45:0b:87:0e:99:54:0a:63:d1:e7:2a:1b:d4:60:1c:c4:cf:
         e2:54:b3:fc:a9:b4:18:15:66:dd:ae:bb:38:49:f4:fe:2e:4d:
         05:0d:c0:12:e6:3d:e9:bd:e3:22:e1:c2:25:c6:30:47:b3:1b:
         57:e9:6a:a0:a5:72:44:30:44:47:8a:4b:d7:75:9b:bf:33:a0:
         bc:d0:61:87:50:59:2b:96:d9:fa:a2:97:b4:5c:74:39:5f:22:
         28:66:2c:49:f4:95:96:f4:ea:83:63:01:dd:e9:32:fe:60:94:
         66:8a:bd:6b:69:b3:5e:0f:78:c5:d9:06:ee:c5:71:6a:c6:e8:
         5c:51:2d:35
-----BEGIN CERTIFICATE-----
MIIFIDCCBAigAwIBAgIBAzANBgkqhkiG9w0BAQsFADCBnTELMAkGA1UEBhMCRVMx
EjAQBgNVBAgTCUNBVEFMVU5ZQTESMBAGA1UEBxMJQmFyY2Vsb25hMQ4wDAYDVQQK
EwVpMkNBVDERMA8GA1UECxMIREFOQS9TRUcxETAPBgNVBAMTCGkyQ0FUIENBMRAw
DgYDVQQpEwdFYXN5UlNBMR4wHAYJKoZIhvcNAQkBFg9lLW1haWxAbWFpbC5jb20w
HhcNMTYwMzAyMTEzOTU5WhcNMjYwMjI4MTEzOTU5WjCBnDELMAkGA1UEBhMCRVMx
EjAQBgNVBAgTCUNBVEFMVU5ZQTESMBAGA1UEBxMJQmFyY2Vsb25hMQ4wDAYDVQQK
EwVpMkNBVDERMA8GA1UECxMIREFOQS9TRUcxEDAOBgNVBAMTB2NsaWVudDExEDAO
BgNVBCkTB0Vhc3lSU0ExHjAcBgkqhkiG9w0BCQEWD2UtbWFpbEBtYWlsLmNvbTCC
ASIwDQYJKoZIhvcNAQEBBQADggEPADCCAQoCggEBALx5xIDG0HOed3b+IJ3T4J2h
dhDvD1zEU1IoadP0tng0zE50P2jPnU0cm9pkR8zrQeYJMyIzqoMg+mlOW2YF5YXv
kq26FA9R2iMdb8NjhpOASI9hqiGrWg3guMeNE5ULr3sb0zDryLShyDTIYgH4V/HQ
+1wJwUQBQ4/qGe9XaIW+9Yw3nAhrXWXHFYybsdq2fzm83JYviWtiT49sOkP0pfYo
f9c5ntPvvcSwR6y5c95DB+hfuPh2xJytPPWH/6ePa2nqqF+5f7x3z5fQheurMhFG
9ccgt2wTxuR/PFnzG6qwJ2fwdfZUkjna2muWqtdLPgWR5zeBTIQG2qsvOCaClDkC
AwEAAaOCAWgwggFkMAkGA1UdEwQCMAAwLQYJYIZIAYb4QgENBCAWHkVhc3ktUlNB
IEdlbmVyYXRlZCBDZXJ0aWZpY2F0ZTAdBgNVHQ4EFgQUyv38SBzjTzO5MzaK30DR
SJwV9vcwgdIGA1UdIwSByjCBx4AUpj27RMINuZkWhBYiabbvwTyrGpyhgaOkgaAw
gZ0xCzAJBgNVBAYTAkVTMRIwEAYDVQQIEwlDQVRBTFVOWUExEjAQBgNVBAcTCUJh
cmNlbG9uYTEOMAwGA1UEChMFaTJDQVQxETAPBgNVBAsTCERBTkEvU0VHMREwDwYD
VQQDEwhpMkNBVCBDQTEQMA4GA1UEKRMHRWFzeVJTQTEeMBwGCSqGSIb3DQEJARYP
ZS1tYWlsQG1haWwuY29tggkA/yocd3AQk2AwEwYDVR0lBAwwCgYIKwYBBQUHAwIw
CwYDVR0PBAQDAgeAMBIGA1UdEQQLMAmCB2NsaWVudDEwDQYJKoZIhvcNAQELBQAD
ggEBAEbog8rgxMWGCXTTVDWHzWjw2Njn65mnHXF1045g1nF2zugMEjP62z0teqF+
XGNQZLcCpvhqHxvTwgsAYyLIooRIm88EB67r0pxFAD1bN0n50cx5/LEpH61Jw2Xr
omH1rDlS4Z41V0QHAmavM9lAalQXDGX2iNjXnV3+BGL3RAtFC4cOmVQKY9HnKhvU
YBzEz+JUs/yptBgVZt2uuzhJ9P4uTQUNwBLmPem94yLhwiXGMEezG1fpaqClckQw
REeKS9d1m78zoLzQYYdQWSuW2fqil7RcdDlfIihmLEn0lZb06oNjAd3pMv5glGaK
vWtps14PeMXZBu7FcWrG6FxRLTU=
-----END CERTIFICATE-----
