Certificate:
    Data:
        Version: 3 (0x2)
        Serial Number: 1 (0x1)
    Signature Algorithm: sha256WithRSAEncryption
        Issuer: C=ES, ST=CATALUNYA, L=Barcelona, O=i2CAT, OU=DANA/SEG, CN=i2CAT CA/name=EasyRSA/emailAddress=e-mail@mail.com
        Validity
            Not Before: Mar  2 11:25:31 2016 GMT
            Not After : Feb 28 11:25:31 2026 GMT
        Subject: C=ES, ST=CATALUNYA, L=Barcelona, O=i2CAT, OU=DANA/SEG, CN=server/name=EasyRSA/emailAddress=e-mail@mail.com
        Subject Public Key Info:
            Public Key Algorithm: rsaEncryption
                Public-Key: (2048 bit)
                Modulus:
                    00:cb:18:f6:a1:59:e7:fa:79:78:79:a9:6d:4a:10:
                    d0:6f:e1:39:8e:9e:80:48:4b:0a:2e:9e:1a:4a:cb:
                    62:71:99:65:03:52:9a:aa:61:fa:3a:1f:be:56:e6:
                    e9:54:c7:aa:44:53:ba:b7:c5:bb:97:b5:bc:8a:1c:
                    5f:28:70:25:f6:30:cb:86:34:05:03:95:0a:31:e7:
                    99:ad:7d:a2:ea:b1:d8:1f:75:e8:b6:58:d7:17:02:
                    e1:21:0b:3f:6e:f6:f8:28:37:d6:b5:ac:8c:b6:80:
                    44:6b:15:fa:a7:82:cb:47:91:29:54:2b:3f:cb:a3:
                    e5:d9:24:df:31:b9:72:c7:d3:71:18:d1:dc:15:3d:
                    a2:96:3b:77:f9:d3:2e:cd:70:b9:75:85:b4:fa:c7:
                    bd:63:de:75:6d:fe:19:4d:6b:a1:ab:da:78:78:b0:
                    21:14:41:b1:41:bb:8a:ba:b8:7d:95:9f:01:3e:9c:
                    07:99:84:8a:03:03:76:23:75:9c:66:ee:4f:a4:10:
                    e7:a2:1a:c4:a5:3a:26:e5:47:c6:a1:76:97:4a:e8:
                    a7:65:5a:53:2d:88:88:34:cd:07:b9:b9:b8:c0:84:
                    28:c4:92:b8:bd:08:ba:3e:03:9d:12:ba:20:29:a9:
                    4b:30:2c:0c:80:65:66:d0:43:1d:7e:2b:fd:aa:50:
                    b2:51
                Exponent: 65537 (0x10001)
        X509v3 extensions:
            X509v3 Basic Constraints: 
                CA:FALSE
            Netscape Cert Type: 
                SSL Server
            Netscape Comment: 
                Easy-RSA Generated Server Certificate
            X509v3 Subject Key Identifier: 
                60:22:28:95:65:2A:4F:E9:3E:68:D6:A0:C1:71:C4:68:05:48:AA:DE
            X509v3 Authority Key Identifier: 
                keyid:A6:3D:BB:44:C2:0D:B9:99:16:84:16:22:69:B6:EF:C1:3C:AB:1A:9C
                DirName:/C=ES/ST=CATALUNYA/L=Barcelona/O=i2CAT/OU=DANA/SEG/CN=i2CAT CA/name=EasyRSA/emailAddress=e-mail@mail.com
                serial:FF:2A:1C:77:70:10:93:60

            X509v3 Extended Key Usage: 
                TLS Web Server Authentication
            X509v3 Key Usage: 
                Digital Signature, Key Encipherment
            X509v3 Subject Alternative Name: 
                DNS:server
    Signature Algorithm: sha256WithRSAEncryption
         a7:83:7b:bb:7a:ab:5d:28:f3:17:b6:3e:e5:6b:e7:3b:2f:02:
         cf:d4:20:75:f0:a4:9d:7c:db:a6:5a:95:a9:53:9d:aa:12:d6:
         7a:13:e0:90:a9:6f:49:59:60:73:ff:99:7b:24:78:a2:eb:a3:
         7b:81:41:a5:85:54:b4:72:6c:80:43:2c:51:49:36:51:a1:53:
         36:9f:57:2a:26:9e:ea:a8:97:6b:96:74:05:e4:14:79:6d:db:
         35:0a:4f:de:52:64:8f:70:c6:85:ef:1d:85:7e:ae:6d:da:5f:
         37:31:2b:2a:62:25:df:e9:ac:23:c2:ff:a4:94:63:76:84:47:
         4a:9c:31:06:f1:df:8d:ff:29:07:a6:89:37:89:27:22:9e:26:
         65:27:f6:b0:b1:72:42:d8:fe:e8:b6:c5:61:cc:ae:8e:76:bb:
         f5:f9:22:06:23:85:e3:97:04:74:17:96:76:50:90:10:c7:98:
         69:08:32:f5:fa:58:be:e0:ea:c1:18:cd:24:bc:b2:8d:8e:97:
         b5:64:55:b6:e5:64:11:e4:01:6d:aa:4c:64:59:6f:45:33:1a:
         16:ab:4b:f3:5b:b6:68:2b:5a:1d:81:03:8b:37:6a:19:54:78:
         a5:7e:2c:ec:61:96:ae:fc:b6:9e:fa:b1:3d:ed:23:6b:6e:4e:
         02:7c:48:fb
-----BEGIN CERTIFICATE-----
MIIFODCCBCCgAwIBAgIBATANBgkqhkiG9w0BAQsFADCBnTELMAkGA1UEBhMCRVMx
EjAQBgNVBAgTCUNBVEFMVU5ZQTESMBAGA1UEBxMJQmFyY2Vsb25hMQ4wDAYDVQQK
EwVpMkNBVDERMA8GA1UECxMIREFOQS9TRUcxETAPBgNVBAMTCGkyQ0FUIENBMRAw
DgYDVQQpEwdFYXN5UlNBMR4wHAYJKoZIhvcNAQkBFg9lLW1haWxAbWFpbC5jb20w
HhcNMTYwMzAyMTEyNTMxWhcNMjYwMjI4MTEyNTMxWjCBmzELMAkGA1UEBhMCRVMx
EjAQBgNVBAgTCUNBVEFMVU5ZQTESMBAGA1UEBxMJQmFyY2Vsb25hMQ4wDAYDVQQK
EwVpMkNBVDERMA8GA1UECxMIREFOQS9TRUcxDzANBgNVBAMTBnNlcnZlcjEQMA4G
A1UEKRMHRWFzeVJTQTEeMBwGCSqGSIb3DQEJARYPZS1tYWlsQG1haWwuY29tMIIB
IjANBgkqhkiG9w0BAQEFAAOCAQ8AMIIBCgKCAQEAyxj2oVnn+nl4ealtShDQb+E5
jp6ASEsKLp4aSsticZllA1KaqmH6Oh++VubpVMeqRFO6t8W7l7W8ihxfKHAl9jDL
hjQFA5UKMeeZrX2i6rHYH3XotljXFwLhIQs/bvb4KDfWtayMtoBEaxX6p4LLR5Ep
VCs/y6Pl2STfMblyx9NxGNHcFT2iljt3+dMuzXC5dYW0+se9Y951bf4ZTWuhq9p4
eLAhFEGxQbuKurh9lZ8BPpwHmYSKAwN2I3WcZu5PpBDnohrEpTom5UfGoXaXSuin
ZVpTLYiINM0Hubm4wIQoxJK4vQi6PgOdErogKalLMCwMgGVm0EMdfiv9qlCyUQID
AQABo4IBgTCCAX0wCQYDVR0TBAIwADARBglghkgBhvhCAQEEBAMCBkAwNAYJYIZI
AYb4QgENBCcWJUVhc3ktUlNBIEdlbmVyYXRlZCBTZXJ2ZXIgQ2VydGlmaWNhdGUw
HQYDVR0OBBYEFGAiKJVlKk/pPmjWoMFxxGgFSKreMIHSBgNVHSMEgcowgceAFKY9
u0TCDbmZFoQWImm278E8qxqcoYGjpIGgMIGdMQswCQYDVQQGEwJFUzESMBAGA1UE
CBMJQ0FUQUxVTllBMRIwEAYDVQQHEwlCYXJjZWxvbmExDjAMBgNVBAoTBWkyQ0FU
MREwDwYDVQQLEwhEQU5BL1NFRzERMA8GA1UEAxMIaTJDQVQgQ0ExEDAOBgNVBCkT
B0Vhc3lSU0ExHjAcBgkqhkiG9w0BCQEWD2UtbWFpbEBtYWlsLmNvbYIJAP8qHHdw
EJNgMBMGA1UdJQQMMAoGCCsGAQUFBwMBMAsGA1UdDwQEAwIFoDARBgNVHREECjAI
ggZzZXJ2ZXIwDQYJKoZIhvcNAQELBQADggEBAKeDe7t6q10o8xe2PuVr5zsvAs/U
IHXwpJ1826ZalalTnaoS1noT4JCpb0lZYHP/mXskeKLro3uBQaWFVLRybIBDLFFJ
NlGhUzafVyomnuqol2uWdAXkFHlt2zUKT95SZI9wxoXvHYV+rm3aXzcxKypiJd/p
rCPC/6SUY3aER0qcMQbx343/KQemiTeJJyKeJmUn9rCxckLY/ui2xWHMro52u/X5
IgYjheOXBHQXlnZQkBDHmGkIMvX6WL7g6sEYzSS8so2Ol7VkVbblZBHkAW2qTGRZ
b0UzGharS/NbtmgrWh2BA4s3ahlUeKV+LOxhlq78tp76sT3tI2tuTgJ8SPs=
-----END CERTIFICATE-----
